; Function Attrs: cold nounwind optsize uwtable
define internal noundef i32 @flac_encode_close(ptr noundef readonly captures(none) %0) #0 {
  %2 = getelementptr inbounds nuw i8, ptr %0, i64 32
  %3 = load ptr, ptr %2, align 8, !tbaa !28
  %4 = getelementptr inbounds nuw i8, ptr %3, i64 7387760
  tail call void @av_freep(ptr noundef nonnull %4) #11
  %5 = getelementptr inbounds nuw i8, ptr %3, i64 7387768
  tail call void @av_freep(ptr noundef nonnull %5) #11
  %6 = getelementptr inbounds nuw i8, ptr %3, i64 7350016
  tail call void @ff_lpc_end(ptr noundef nonnull %6) #11
  ret i32 0
}